; ModuleID = '46/2613.c'
source_filename = "46/2613.c"
target datalayout = "e-m:e-p270:32:32-p271:32:32-p272:64:64-i64:64-f80:128-n8:16:32:64-S128"
target triple = "x86_64-pc-linux-gnu"

@__const.main.c = private unnamed_addr constant [4 x i32] [i32 -1, i32 0, i32 1, i32 0], align 16
@__const.main.d = private unnamed_addr constant [4 x i32] [i32 0, i32 1, i32 0, i32 -1], align 16
@.str = private unnamed_addr constant [5 x i8] c"%d%d\00", align 1
@.str.1 = private unnamed_addr constant [3 x i8] c"%d\00", align 1
@.str.2 = private unnamed_addr constant [4 x i8] c"%d\0A\00", align 1

; Function Attrs: noinline nounwind uwtable
define dso_local i32 @main() #0 {
  %1 = alloca i32, align 4
  %2 = alloca [101 x [101 x i32]], align 16
  %3 = alloca [101 x [101 x i32]], align 16
  %4 = alloca [4 x i32], align 16
  %5 = alloca [4 x i32], align 16
  %6 = alloca i32, align 4
  %7 = alloca i32, align 4
  %8 = alloca i32, align 4
  %9 = alloca i32, align 4
  %10 = alloca i32, align 4
  %11 = alloca i32, align 4
  %12 = alloca i32, align 4
  store i32 0, i32* %1, align 4
  %13 = bitcast [101 x [101 x i32]]* %3 to i8*
  call void @llvm.memset.p0i8.i64(i8* align 16 %13, i8 0, i64 40804, i1 false)
  %14 = bitcast [4 x i32]* %4 to i8*
  call void @llvm.memcpy.p0i8.p0i8.i64(i8* align 16 %14, i8* align 16 bitcast ([4 x i32]* @__const.main.c to i8*), i64 16, i1 false)
  %15 = bitcast [4 x i32]* %5 to i8*
  call void @llvm.memcpy.p0i8.p0i8.i64(i8* align 16 %15, i8* align 16 bitcast ([4 x i32]* @__const.main.d to i8*), i64 16, i1 false)
  %16 = call i32 (i8*, ...) @__isoc99_scanf(i8* getelementptr inbounds ([5 x i8], [5 x i8]* @.str, i64 0, i64 0), i32* %6, i32* %7)
  store i32 1, i32* %8, align 4
  br label %17

17:                                               ; preds = %44, %0
  %18 = load i32, i32* %8, align 4
  %19 = load i32, i32* %6, align 4
  %20 = icmp sle i32 %18, %19
  br i1 %20, label %21, label %47

21:                                               ; preds = %17
  store i32 1, i32* %9, align 4
  br label %22

22:                                               ; preds = %40, %21
  %23 = load i32, i32* %9, align 4
  %24 = load i32, i32* %7, align 4
  %25 = icmp sle i32 %23, %24
  br i1 %25, label %26, label %43

26:                                               ; preds = %22
  %27 = load i32, i32* %8, align 4
  %28 = sext i32 %27 to i64
  %29 = getelementptr inbounds [101 x [101 x i32]], [101 x [101 x i32]]* %2, i64 0, i64 %28
  %30 = load i32, i32* %9, align 4
  %31 = sext i32 %30 to i64
  %32 = getelementptr inbounds [101 x i32], [101 x i32]* %29, i64 0, i64 %31
  %33 = call i32 (i8*, ...) @__isoc99_scanf(i8* getelementptr inbounds ([3 x i8], [3 x i8]* @.str.1, i64 0, i64 0), i32* %32)
  %34 = load i32, i32* %8, align 4
  %35 = sext i32 %34 to i64
  %36 = getelementptr inbounds [101 x [101 x i32]], [101 x [101 x i32]]* %3, i64 0, i64 %35
  %37 = load i32, i32* %9, align 4
  %38 = sext i32 %37 to i64
  %39 = getelementptr inbounds [101 x i32], [101 x i32]* %36, i64 0, i64 %38
  store i32 1, i32* %39, align 4
  br label %40

40:                                               ; preds = %26
  %41 = load i32, i32* %9, align 4
  %42 = add nsw i32 %41, 1
  store i32 %42, i32* %9, align 4
  br label %22

43:                                               ; preds = %22
  br label %44

44:                                               ; preds = %43
  %45 = load i32, i32* %8, align 4
  %46 = add nsw i32 %45, 1
  store i32 %46, i32* %8, align 4
  br label %17

47:                                               ; preds = %17
  store i32 1, i32* %12, align 4
  store i32 1, i32* %11, align 4
  store i32 1, i32* %10, align 4
  store i32 1, i32* %8, align 4
  br label %48

48:                                               ; preds = %104, %47
  %49 = load i32, i32* %8, align 4
  %50 = load i32, i32* %6, align 4
  %51 = load i32, i32* %7, align 4
  %52 = mul nsw i32 %50, %51
  %53 = icmp sle i32 %49, %52
  br i1 %53, label %54, label %107

54:                                               ; preds = %48
  %55 = load i32, i32* %10, align 4
  %56 = sext i32 %55 to i64
  %57 = getelementptr inbounds [101 x [101 x i32]], [101 x [101 x i32]]* %2, i64 0, i64 %56
  %58 = load i32, i32* %11, align 4
  %59 = sext i32 %58 to i64
  %60 = getelementptr inbounds [101 x i32], [101 x i32]* %57, i64 0, i64 %59
  %61 = load i32, i32* %60, align 4
  %62 = call i32 (i8*, ...) @printf(i8* getelementptr inbounds ([4 x i8], [4 x i8]* @.str.2, i64 0, i64 0), i32 %61)
  %63 = load i32, i32* %10, align 4
  %64 = sext i32 %63 to i64
  %65 = getelementptr inbounds [101 x [101 x i32]], [101 x [101 x i32]]* %3, i64 0, i64 %64
  %66 = load i32, i32* %11, align 4
  %67 = sext i32 %66 to i64
  %68 = getelementptr inbounds [101 x i32], [101 x i32]* %65, i64 0, i64 %67
  store i32 0, i32* %68, align 4
  %69 = load i32, i32* %10, align 4
  %70 = load i32, i32* %12, align 4
  %71 = sext i32 %70 to i64
  %72 = getelementptr inbounds [4 x i32], [4 x i32]* %4, i64 0, i64 %71
  %73 = load i32, i32* %72, align 4
  %74 = add nsw i32 %69, %73
  %75 = sext i32 %74 to i64
  %76 = getelementptr inbounds [101 x [101 x i32]], [101 x [101 x i32]]* %3, i64 0, i64 %75
  %77 = load i32, i32* %11, align 4
  %78 = load i32, i32* %12, align 4
  %79 = sext i32 %78 to i64
  %80 = getelementptr inbounds [4 x i32], [4 x i32]* %5, i64 0, i64 %79
  %81 = load i32, i32* %80, align 4
  %82 = add nsw i32 %77, %81
  %83 = sext i32 %82 to i64
  %84 = getelementptr inbounds [101 x i32], [101 x i32]* %76, i64 0, i64 %83
  %85 = load i32, i32* %84, align 4
  %86 = icmp ne i32 %85, 0
  br i1 %86, label %91, label %87

87:                                               ; preds = %54
  %88 = load i32, i32* %12, align 4
  %89 = add nsw i32 %88, 1
  %90 = srem i32 %89, 4
  store i32 %90, i32* %12, align 4
  br label %91

91:                                               ; preds = %87, %54
  %92 = load i32, i32* %12, align 4
  %93 = sext i32 %92 to i64
  %94 = getelementptr inbounds [4 x i32], [4 x i32]* %4, i64 0, i64 %93
  %95 = load i32, i32* %94, align 4
  %96 = load i32, i32* %10, align 4
  %97 = add nsw i32 %96, %95
  store i32 %97, i32* %10, align 4
  %98 = load i32, i32* %12, align 4
  %99 = sext i32 %98 to i64
  %100 = getelementptr inbounds [4 x i32], [4 x i32]* %5, i64 0, i64 %99
  %101 = load i32, i32* %100, align 4
  %102 = load i32, i32* %11, align 4
  %103 = add nsw i32 %102, %101
  store i32 %103, i32* %11, align 4
  br label %104

104:                                              ; preds = %91
  %105 = load i32, i32* %8, align 4
  %106 = add nsw i32 %105, 1
  store i32 %106, i32* %8, align 4
  br label %48

107:                                              ; preds = %48
  ret i32 0
}

; Function Attrs: argmemonly nounwind willreturn
declare void @llvm.memset.p0i8.i64(i8* nocapture writeonly, i8, i64, i1 immarg) #1

; Function Attrs: argmemonly nounwind willreturn
declare void @llvm.memcpy.p0i8.p0i8.i64(i8* noalias nocapture writeonly, i8* noalias nocapture readonly, i64, i1 immarg) #1

declare dso_local i32 @__isoc99_scanf(i8*, ...) #2

declare dso_local i32 @printf(i8*, ...) #2


!llvm.module.flags = !{!0}
!llvm.ident = !{!1}

!0 = !{i32 1, !"wchar_size", i32 4}
!1 = !{!"clang version 10.0.0-4ubuntu1 "}
